target datalayout = "e-m:e-p270:32:32-p271:32:32-p272:64:64-i64:64-i128:128-f80:128-n8:16:32:64-S128"
target triple = "x86_64-pc-linux-gnu"

; Function Attrs: nounwind uwtable
define internal i32 @cpy_univ(i64 noundef %0, ptr noundef %1) #0 {
  %3 = alloca i64, align 8
  %4 = alloca ptr, align 8
  %5 = alloca ptr, align 8
  %6 = alloca ptr, align 8
  store i64 %0, ptr %3, align 8, !tbaa !12
  store ptr %1, ptr %4, align 8, !tbaa !14
  call void @llvm.lifetime.start.p0(i64 8, ptr %5) #5
  call void @llvm.lifetime.start.p0(i64 8, ptr %6) #5
  %7 = load ptr, ptr %4, align 8, !tbaa !14
  store ptr %7, ptr %5, align 8, !tbaa !26
  %8 = load ptr, ptr %5, align 8, !tbaa !26
  %9 = load ptr, ptr %8, align 8, !tbaa !8
  store ptr %9, ptr %6, align 8, !tbaa !8
  %10 = load i64, ptr %3, align 8, !tbaa !12
  %11 = lshr i64 %10, 24
  %12 = and i64 %11, 255
  %13 = trunc i64 %12 to i8
  %14 = load ptr, ptr %6, align 8, !tbaa !8
  %15 = getelementptr inbounds nuw i8, ptr %14, i32 1
  store ptr %15, ptr %6, align 8, !tbaa !8
  store i8 %13, ptr %14, align 1, !tbaa !17
  %16 = load i64, ptr %3, align 8, !tbaa !12
  %17 = lshr i64 %16, 16
  %18 = and i64 %17, 255
  %19 = trunc i64 %18 to i8
  %20 = load ptr, ptr %6, align 8, !tbaa !8
  %21 = getelementptr inbounds nuw i8, ptr %20, i32 1
  store ptr %21, ptr %6, align 8, !tbaa !8
  store i8 %19, ptr %20, align 1, !tbaa !17
  %22 = load i64, ptr %3, align 8, !tbaa !12
  %23 = lshr i64 %22, 8
  %24 = and i64 %23, 255
  %25 = trunc i64 %24 to i8
  %26 = load ptr, ptr %6, align 8, !tbaa !8
  %27 = getelementptr inbounds nuw i8, ptr %26, i32 1
  store ptr %27, ptr %6, align 8, !tbaa !8
  store i8 %25, ptr %26, align 1, !tbaa !17
  %28 = load i64, ptr %3, align 8, !tbaa !12
  %29 = and i64 %28, 255
  %30 = trunc i64 %29 to i8
  %31 = load ptr, ptr %6, align 8, !tbaa !8
  store i8 %30, ptr %31, align 1, !tbaa !17
  %32 = load ptr, ptr %5, align 8, !tbaa !26
  %33 = load ptr, ptr %32, align 8, !tbaa !8
  %34 = getelementptr inbounds i8, ptr %33, i64 4
  store ptr %34, ptr %32, align 8, !tbaa !8
  call void @llvm.lifetime.end.p0(i64 8, ptr %6) #5
  call void @llvm.lifetime.end.p0(i64 8, ptr %5) #5
  ret i32 1
}