; Function Attrs: mustprogress nofree norecurse nosync nounwind willreturn memory(write, argmem: readwrite, inaccessiblemem: none) uwtable
define internal noundef i32 @cpy_univ(i64 noundef %0, ptr noundef captures(none) %1) #4 {
  %3 = load ptr, ptr %1, align 8, !tbaa !17
  %4 = lshr i64 %0, 24
  %5 = trunc i64 %4 to i8
  %6 = getelementptr inbounds nuw i8, ptr %3, i64 1
  store i8 %5, ptr %3, align 1, !tbaa !20
  %7 = lshr i64 %0, 16
  %8 = trunc i64 %7 to i8
  %9 = getelementptr inbounds nuw i8, ptr %3, i64 2
  store i8 %8, ptr %6, align 1, !tbaa !20
  %10 = lshr i64 %0, 8
  %11 = trunc i64 %10 to i8
  %12 = getelementptr inbounds nuw i8, ptr %3, i64 3
  store i8 %11, ptr %9, align 1, !tbaa !20
  %13 = trunc i64 %0 to i8
  store i8 %13, ptr %12, align 1, !tbaa !20
  %14 = load ptr, ptr %1, align 8, !tbaa !17
  %15 = getelementptr inbounds nuw i8, ptr %14, i64 4
  store ptr %15, ptr %1, align 8, !tbaa !17
  ret i32 1
}